; ModuleID = '24/2417.c'
source_filename = "24/2417.c"
target datalayout = "e-m:e-p270:32:32-p271:32:32-p272:64:64-i64:64-f80:128-n8:16:32:64-S128"
target triple = "x86_64-pc-linux-gnu"

@.str = private unnamed_addr constant [2 x i8] c"\0A\00", align 1

; Function Attrs: noinline nounwind uwtable
define dso_local i32 @main() #0 {
  %1 = alloca i32, align 4
  %2 = alloca i32, align 4
  %3 = alloca i32, align 4
  %4 = alloca i32, align 4
  %5 = alloca i32, align 4
  %6 = alloca i32, align 4
  %7 = alloca [2000 x i8], align 16
  %8 = alloca i32, align 4
  %9 = alloca i32, align 4
  %10 = alloca i32, align 4
  store i32 0, i32* %1, align 4
  store i32 0, i32* %2, align 4
  store i32 0, i32* %3, align 4
  store i32 0, i32* %4, align 4
  store i32 0, i32* %5, align 4
  %11 = bitcast [2000 x i8]* %7 to i8*
  call void @llvm.memset.p0i8.i64(i8* align 16 %11, i8 0, i64 2000, i1 false)
  %12 = getelementptr inbounds [2000 x i8], [2000 x i8]* %7, i64 0, i64 0
  %13 = call i32 (i8*, ...) bitcast (i32 (...)* @gets to i32 (i8*, ...)*)(i8* %12)
  %14 = getelementptr inbounds [2000 x i8], [2000 x i8]* %7, i64 0, i64 0
  %15 = call i64 @strlen(i8* %14) #4
  %16 = trunc i64 %15 to i32
  store i32 %16, i32* %8, align 4
  store i32 0, i32* %9, align 4
  store i32 0, i32* %10, align 4
  br label %17

17:                                               ; preds = %47, %0
  %18 = load i32, i32* %9, align 4
  %19 = load i32, i32* %10, align 4
  %20 = add nsw i32 %18, %19
  %21 = sext i32 %20 to i64
  %22 = getelementptr inbounds [2000 x i8], [2000 x i8]* %7, i64 0, i64 %21
  %23 = load i8, i8* %22, align 1
  %24 = sext i8 %23 to i32
  %25 = icmp ne i32 %24, 32
  br i1 %25, label %26, label %44

26:                                               ; preds = %17
  %27 = load i32, i32* %9, align 4
  %28 = load i32, i32* %10, align 4
  %29 = add nsw i32 %27, %28
  %30 = sext i32 %29 to i64
  %31 = getelementptr inbounds [2000 x i8], [2000 x i8]* %7, i64 0, i64 %30
  %32 = load i8, i8* %31, align 1
  %33 = sext i8 %32 to i32
  %34 = icmp ne i32 %33, 44
  br i1 %34, label %35, label %44

35:                                               ; preds = %26
  %36 = load i32, i32* %9, align 4
  %37 = load i32, i32* %10, align 4
  %38 = add nsw i32 %36, %37
  %39 = sext i32 %38 to i64
  %40 = getelementptr inbounds [2000 x i8], [2000 x i8]* %7, i64 0, i64 %39
  %41 = load i8, i8* %40, align 1
  %42 = sext i8 %41 to i32
  %43 = icmp ne i32 %42, 0
  br label %44

44:                                               ; preds = %35, %26, %17
  %45 = phi i1 [ false, %26 ], [ false, %17 ], [ %43, %35 ]
  br i1 %45, label %46, label %50

46:                                               ; preds = %44
  br label %47

47:                                               ; preds = %46
  %48 = load i32, i32* %10, align 4
  %49 = add nsw i32 %48, 1
  store i32 %49, i32* %10, align 4
  br label %17

50:                                               ; preds = %44
  %51 = load i32, i32* %10, align 4
  store i32 %51, i32* %2, align 4
  store i32 %51, i32* %3, align 4
  %52 = load i32, i32* %10, align 4
  %53 = add nsw i32 %52, 1
  store i32 %53, i32* %9, align 4
  br label %54

54:                                               ; preds = %115, %50
  %55 = load i32, i32* %9, align 4
  %56 = load i32, i32* %8, align 4
  %57 = icmp slt i32 %55, %56
  br i1 %57, label %58, label %120

58:                                               ; preds = %54
  store i32 0, i32* %10, align 4
  br label %59

59:                                               ; preds = %94, %58
  %60 = load i32, i32* %9, align 4
  %61 = load i32, i32* %10, align 4
  %62 = add nsw i32 %60, %61
  %63 = load i32, i32* %8, align 4
  %64 = icmp slt i32 %62, %63
  br i1 %64, label %65, label %97

65:                                               ; preds = %59
  %66 = load i32, i32* %9, align 4
  %67 = load i32, i32* %10, align 4
  %68 = add nsw i32 %66, %67
  %69 = sext i32 %68 to i64
  %70 = getelementptr inbounds [2000 x i8], [2000 x i8]* %7, i64 0, i64 %69
  %71 = load i8, i8* %70, align 1
  %72 = sext i8 %71 to i32
  %73 = icmp eq i32 %72, 32
  br i1 %73, label %92, label %74

74:                                               ; preds = %65
  %75 = load i32, i32* %9, align 4
  %76 = load i32, i32* %10, align 4
  %77 = add nsw i32 %75, %76
  %78 = sext i32 %77 to i64
  %79 = getelementptr inbounds [2000 x i8], [2000 x i8]* %7, i64 0, i64 %78
  %80 = load i8, i8* %79, align 1
  %81 = sext i8 %80 to i32
  %82 = icmp eq i32 %81, 44
  br i1 %82, label %92, label %83

83:                                               ; preds = %74
  %84 = load i32, i32* %9, align 4
  %85 = load i32, i32* %10, align 4
  %86 = add nsw i32 %84, %85
  %87 = sext i32 %86 to i64
  %88 = getelementptr inbounds [2000 x i8], [2000 x i8]* %7, i64 0, i64 %87
  %89 = load i8, i8* %88, align 1
  %90 = sext i8 %89 to i32
  %91 = icmp eq i32 %90, 0
  br i1 %91, label %92, label %93

92:                                               ; preds = %83, %74, %65
  br label %97

93:                                               ; preds = %83
  br label %94

94:                                               ; preds = %93
  %95 = load i32, i32* %10, align 4
  %96 = add nsw i32 %95, 1
  store i32 %96, i32* %10, align 4
  br label %59

97:                                               ; preds = %92, %59
  %98 = load i32, i32* %10, align 4
  %99 = load i32, i32* %3, align 4
  %100 = icmp sgt i32 %98, %99
  br i1 %100, label %101, label %104

101:                                              ; preds = %97
  %102 = load i32, i32* %10, align 4
  store i32 %102, i32* %3, align 4
  %103 = load i32, i32* %9, align 4
  store i32 %103, i32* %5, align 4
  br label %104

104:                                              ; preds = %101, %97
  %105 = load i32, i32* %10, align 4
  %106 = load i32, i32* %2, align 4
  %107 = icmp slt i32 %105, %106
  br i1 %107, label %108, label %114

108:                                              ; preds = %104
  %109 = load i32, i32* %10, align 4
  %110 = icmp ne i32 %109, 0
  br i1 %110, label %111, label %114

111:                                              ; preds = %108
  %112 = load i32, i32* %10, align 4
  store i32 %112, i32* %2, align 4
  %113 = load i32, i32* %9, align 4
  store i32 %113, i32* %4, align 4
  br label %114

114:                                              ; preds = %111, %108, %104
  br label %115

115:                                              ; preds = %114
  %116 = load i32, i32* %10, align 4
  %117 = add nsw i32 %116, 1
  %118 = load i32, i32* %9, align 4
  %119 = add nsw i32 %118, %117
  store i32 %119, i32* %9, align 4
  br label %54

120:                                              ; preds = %54
  store i32 0, i32* %6, align 4
  br label %121

121:                                              ; preds = %134, %120
  %122 = load i32, i32* %6, align 4
  %123 = load i32, i32* %3, align 4
  %124 = icmp slt i32 %122, %123
  br i1 %124, label %125, label %137

125:                                              ; preds = %121
  %126 = load i32, i32* %5, align 4
  %127 = load i32, i32* %6, align 4
  %128 = add nsw i32 %126, %127
  %129 = sext i32 %128 to i64
  %130 = getelementptr inbounds [2000 x i8], [2000 x i8]* %7, i64 0, i64 %129
  %131 = load i8, i8* %130, align 1
  %132 = sext i8 %131 to i32
  %133 = call i32 @putchar(i32 %132)
  br label %134

134:                                              ; preds = %125
  %135 = load i32, i32* %6, align 4
  %136 = add nsw i32 %135, 1
  store i32 %136, i32* %6, align 4
  br label %121

137:                                              ; preds = %121
  %138 = call i32 (i8*, ...) @printf(i8* getelementptr inbounds ([2 x i8], [2 x i8]* @.str, i64 0, i64 0))
  store i32 0, i32* %6, align 4
  br label %139

139:                                              ; preds = %152, %137
  %140 = load i32, i32* %6, align 4
  %141 = load i32, i32* %2, align 4
  %142 = icmp slt i32 %140, %141
  br i1 %142, label %143, label %155

143:                                              ; preds = %139
  %144 = load i32, i32* %4, align 4
  %145 = load i32, i32* %6, align 4
  %146 = add nsw i32 %144, %145
  %147 = sext i32 %146 to i64
  %148 = getelementptr inbounds [2000 x i8], [2000 x i8]* %7, i64 0, i64 %147
  %149 = load i8, i8* %148, align 1
  %150 = sext i8 %149 to i32
  %151 = call i32 @putchar(i32 %150)
  br label %152

152:                                              ; preds = %143
  %153 = load i32, i32* %6, align 4
  %154 = add nsw i32 %153, 1
  store i32 %154, i32* %6, align 4
  br label %139

155:                                              ; preds = %139
  %156 = call i32 (i8*, ...) @printf(i8* getelementptr inbounds ([2 x i8], [2 x i8]* @.str, i64 0, i64 0))
  %157 = load i32, i32* %1, align 4
  ret i32 %157
}

; Function Attrs: argmemonly nounwind willreturn
declare void @llvm.memset.p0i8.i64(i8* nocapture writeonly, i8, i64, i1 immarg) #1

declare dso_local i32 @gets(...) #2

; Function Attrs: nounwind readonly
declare dso_local i64 @strlen(i8*) #3

declare dso_local i32 @putchar(i32) #2

declare dso_local i32 @printf(i8*, ...) #2


!llvm.module.flags = !{!0}
!llvm.ident = !{!1}

!0 = !{i32 1, !"wchar_size", i32 4}
!1 = !{!"clang version 10.0.0-4ubuntu1 "}
